target datalayout = "e-m:e-p270:32:32-p271:32:32-p272:64:64-i64:64-i128:128-f80:128-n8:16:32:64-S128"
target triple = "x86_64-pc-linux-gnu"

%struct.GroupNumRemap = type { i32 }
%struct._Node = type { %union.anon }
%union.anon = type { %struct.StrNode }
%struct.StrNode = type { %struct.NodeBase, ptr, ptr, i32, i32, [24 x i8] }
%struct.NodeBase = type { i32 }
%struct.ConsAltNode = type { %struct.NodeBase, ptr, ptr }
%struct.QtfrNode = type { %struct.NodeBase, i32, ptr, i32, i32, i32, i32, ptr, ptr, i32 }
%struct.EncloseNode = type { %struct.NodeBase, i32, i32, i32, i32, i32, ptr, i64, i64, i32, i32 }
%struct.AnchorNode = type { %struct.NodeBase, i32, ptr, i32, i32 }

; Function Attrs: nounwind sspstrong uwtable
define internal i32 @noname_disable_map(ptr noundef %0, ptr noundef %1, ptr noundef %2) #0 {
  %4 = alloca ptr, align 8
  %5 = alloca ptr, align 8
  %6 = alloca ptr, align 8
  %7 = alloca i32, align 4
  %8 = alloca ptr, align 8
  %9 = alloca ptr, align 8
  %10 = alloca ptr, align 8
  %11 = alloca ptr, align 8
  %12 = alloca i32, align 4
  store ptr %0, ptr %4, align 8, !tbaa !84
  store ptr %1, ptr %5, align 8, !tbaa !36
  store ptr %2, ptr %6, align 8, !tbaa !39
  call void @llvm.lifetime.start.p0(i64 4, ptr %7) #11
  store i32 0, ptr %7, align 4, !tbaa !7
  call void @llvm.lifetime.start.p0(i64 8, ptr %8) #11
  %13 = load ptr, ptr %4, align 8, !tbaa !84
  %14 = load ptr, ptr %13, align 8, !tbaa !66
  store ptr %14, ptr %8, align 8, !tbaa !66
  %15 = load ptr, ptr %8, align 8, !tbaa !66
  %16 = getelementptr inbounds nuw %struct._Node, ptr %15, i32 0, i32 0
  %17 = getelementptr inbounds nuw %struct.NodeBase, ptr %16, i32 0, i32 0
  %18 = load i32, ptr %17, align 8, !tbaa !38
  switch i32 %18, label %137 [
    i32 8, label %19
    i32 9, label %19
    i32 5, label %39
    i32 6, label %65
    i32 7, label %123
  ]

19:                                               ; preds = %3, %3
  br label %20

20:                                               ; preds = %36, %19
  %21 = load ptr, ptr %8, align 8, !tbaa !66
  %22 = getelementptr inbounds nuw %struct._Node, ptr %21, i32 0, i32 0
  %23 = getelementptr inbounds nuw %struct.ConsAltNode, ptr %22, i32 0, i32 1
  %24 = load ptr, ptr %5, align 8, !tbaa !36
  %25 = load ptr, ptr %6, align 8, !tbaa !39
  %26 = call i32 @noname_disable_map(ptr noundef %23, ptr noundef %24, ptr noundef %25)
  store i32 %26, ptr %7, align 4, !tbaa !7
  br label %27

27:                                               ; preds = %20
  %28 = load i32, ptr %7, align 4, !tbaa !7
  %29 = icmp eq i32 %28, 0
  br i1 %29, label %30, label %36

30:                                               ; preds = %27
  %31 = load ptr, ptr %8, align 8, !tbaa !66
  %32 = getelementptr inbounds nuw %struct._Node, ptr %31, i32 0, i32 0
  %33 = getelementptr inbounds nuw %struct.ConsAltNode, ptr %32, i32 0, i32 2
  %34 = load ptr, ptr %33, align 8, !tbaa !38
  store ptr %34, ptr %8, align 8, !tbaa !66
  %35 = icmp ne ptr %34, null
  br label %36

36:                                               ; preds = %30, %27
  %37 = phi i1 [ false, %27 ], [ %35, %30 ]
  br i1 %37, label %20, label %38, !llvm.loop !192

38:                                               ; preds = %36
  br label %138

39:                                               ; preds = %3
  call void @llvm.lifetime.start.p0(i64 8, ptr %9) #11
  %40 = load ptr, ptr %8, align 8, !tbaa !66
  %41 = getelementptr inbounds nuw %struct._Node, ptr %40, i32 0, i32 0
  %42 = getelementptr inbounds nuw %struct.QtfrNode, ptr %41, i32 0, i32 2
  store ptr %42, ptr %9, align 8, !tbaa !84
  call void @llvm.lifetime.start.p0(i64 8, ptr %10) #11
  %43 = load ptr, ptr %9, align 8, !tbaa !84
  %44 = load ptr, ptr %43, align 8, !tbaa !66
  store ptr %44, ptr %10, align 8, !tbaa !66
  %45 = load ptr, ptr %9, align 8, !tbaa !84
  %46 = load ptr, ptr %5, align 8, !tbaa !36
  %47 = load ptr, ptr %6, align 8, !tbaa !39
  %48 = call i32 @noname_disable_map(ptr noundef %45, ptr noundef %46, ptr noundef %47)
  store i32 %48, ptr %7, align 4, !tbaa !7
  %49 = load ptr, ptr %9, align 8, !tbaa !84
  %50 = load ptr, ptr %49, align 8, !tbaa !66
  %51 = load ptr, ptr %10, align 8, !tbaa !66
  %52 = icmp ne ptr %50, %51
  br i1 %52, label %53, label %64

53:                                               ; preds = %39
  %54 = load ptr, ptr %9, align 8, !tbaa !84
  %55 = load ptr, ptr %54, align 8, !tbaa !66
  %56 = getelementptr inbounds nuw %struct._Node, ptr %55, i32 0, i32 0
  %57 = getelementptr inbounds nuw %struct.NodeBase, ptr %56, i32 0, i32 0
  %58 = load i32, ptr %57, align 8, !tbaa !38
  %59 = icmp eq i32 %58, 5
  br i1 %59, label %60, label %64

60:                                               ; preds = %53
  %61 = load ptr, ptr %8, align 8, !tbaa !66
  %62 = load ptr, ptr %9, align 8, !tbaa !84
  %63 = load ptr, ptr %62, align 8, !tbaa !66
  call void @onig_reduce_nested_quantifier(ptr noundef %61, ptr noundef %63)
  br label %64

64:                                               ; preds = %60, %53, %39
  call void @llvm.lifetime.end.p0(i64 8, ptr %10) #11
  call void @llvm.lifetime.end.p0(i64 8, ptr %9) #11
  br label %138

65:                                               ; preds = %3
  call void @llvm.lifetime.start.p0(i64 8, ptr %11) #11
  %66 = load ptr, ptr %8, align 8, !tbaa !66
  %67 = getelementptr inbounds nuw %struct._Node, ptr %66, i32 0, i32 0
  store ptr %67, ptr %11, align 8, !tbaa !36
  %68 = load ptr, ptr %11, align 8, !tbaa !36
  %69 = getelementptr inbounds nuw %struct.EncloseNode, ptr %68, i32 0, i32 2
  %70 = load i32, ptr %69, align 8, !tbaa !133
  %71 = icmp eq i32 %70, 1
  br i1 %71, label %72, label %114

72:                                               ; preds = %65
  %73 = load ptr, ptr %11, align 8, !tbaa !36
  %74 = getelementptr inbounds nuw %struct.EncloseNode, ptr %73, i32 0, i32 1
  %75 = load i32, ptr %74, align 4, !tbaa !110
  %76 = and i32 %75, 1024
  %77 = icmp ne i32 %76, 0
  br i1 %77, label %78, label %95

78:                                               ; preds = %72
  %79 = load ptr, ptr %6, align 8, !tbaa !39
  %80 = load i32, ptr %79, align 4, !tbaa !7
  %81 = add i32 %80, 1
  store i32 %81, ptr %79, align 4, !tbaa !7
  %82 = load ptr, ptr %6, align 8, !tbaa !39
  %83 = load i32, ptr %82, align 4, !tbaa !7
  %84 = load ptr, ptr %5, align 8, !tbaa !36
  %85 = load ptr, ptr %11, align 8, !tbaa !36
  %86 = getelementptr inbounds nuw %struct.EncloseNode, ptr %85, i32 0, i32 3
  %87 = load i32, ptr %86, align 4, !tbaa !134
  %88 = sext i32 %87 to i64
  %89 = getelementptr %struct.GroupNumRemap, ptr %84, i64 %88
  %90 = getelementptr inbounds nuw %struct.GroupNumRemap, ptr %89, i32 0, i32 0
  store i32 %83, ptr %90, align 4, !tbaa !85
  %91 = load ptr, ptr %6, align 8, !tbaa !39
  %92 = load i32, ptr %91, align 4, !tbaa !7
  %93 = load ptr, ptr %11, align 8, !tbaa !36
  %94 = getelementptr inbounds nuw %struct.EncloseNode, ptr %93, i32 0, i32 3
  store i32 %92, ptr %94, align 4, !tbaa !134
  br label %113

95:                                               ; preds = %72
  %96 = load ptr, ptr %11, align 8, !tbaa !36
  %97 = getelementptr inbounds nuw %struct.EncloseNode, ptr %96, i32 0, i32 3
  %98 = load i32, ptr %97, align 4, !tbaa !134
  %99 = icmp ne i32 %98, 0
  br i1 %99, label %100, label %112

100:                                              ; preds = %95
  %101 = load ptr, ptr %11, align 8, !tbaa !36
  %102 = getelementptr inbounds nuw %struct.EncloseNode, ptr %101, i32 0, i32 6
  %103 = load ptr, ptr %102, align 8, !tbaa !112
  %104 = load ptr, ptr %4, align 8, !tbaa !84
  store ptr %103, ptr %104, align 8, !tbaa !66
  %105 = load ptr, ptr %11, align 8, !tbaa !36
  %106 = getelementptr inbounds nuw %struct.EncloseNode, ptr %105, i32 0, i32 6
  store ptr null, ptr %106, align 8, !tbaa !112
  %107 = load ptr, ptr %8, align 8, !tbaa !66
  call void @onig_node_free(ptr noundef %107)
  %108 = load ptr, ptr %4, align 8, !tbaa !84
  %109 = load ptr, ptr %5, align 8, !tbaa !36
  %110 = load ptr, ptr %6, align 8, !tbaa !39
  %111 = call i32 @noname_disable_map(ptr noundef %108, ptr noundef %109, ptr noundef %110)
  store i32 %111, ptr %7, align 4, !tbaa !7
  store i32 2, ptr %12, align 4
  br label %120

112:                                              ; preds = %95
  br label %113

113:                                              ; preds = %112, %78
  br label %114

114:                                              ; preds = %113, %65
  %115 = load ptr, ptr %11, align 8, !tbaa !36
  %116 = getelementptr inbounds nuw %struct.EncloseNode, ptr %115, i32 0, i32 6
  %117 = load ptr, ptr %5, align 8, !tbaa !36
  %118 = load ptr, ptr %6, align 8, !tbaa !39
  %119 = call i32 @noname_disable_map(ptr noundef %116, ptr noundef %117, ptr noundef %118)
  store i32 %119, ptr %7, align 4, !tbaa !7
  store i32 0, ptr %12, align 4
  br label %120

120:                                              ; preds = %114, %100
  call void @llvm.lifetime.end.p0(i64 8, ptr %11) #11
  %121 = load i32, ptr %12, align 4
  switch i32 %121, label %140 [
    i32 0, label %122
    i32 2, label %138
  ]

122:                                              ; preds = %120
  br label %138

123:                                              ; preds = %3
  %124 = load ptr, ptr %8, align 8, !tbaa !66
  %125 = getelementptr inbounds nuw %struct._Node, ptr %124, i32 0, i32 0
  %126 = getelementptr inbounds nuw %struct.AnchorNode, ptr %125, i32 0, i32 2
  %127 = load ptr, ptr %126, align 8, !tbaa !38
  %128 = icmp ne ptr %127, null
  br i1 %128, label %129, label %136

129:                                              ; preds = %123
  %130 = load ptr, ptr %8, align 8, !tbaa !66
  %131 = getelementptr inbounds nuw %struct._Node, ptr %130, i32 0, i32 0
  %132 = getelementptr inbounds nuw %struct.AnchorNode, ptr %131, i32 0, i32 2
  %133 = load ptr, ptr %5, align 8, !tbaa !36
  %134 = load ptr, ptr %6, align 8, !tbaa !39
  %135 = call i32 @noname_disable_map(ptr noundef %132, ptr noundef %133, ptr noundef %134)
  store i32 %135, ptr %7, align 4, !tbaa !7
  br label %136

136:                                              ; preds = %129, %123
  br label %138

137:                                              ; preds = %3
  br label %138

138:                                              ; preds = %137, %136, %122, %120, %64, %38
  %139 = load i32, ptr %7, align 4, !tbaa !7
  store i32 1, ptr %12, align 4
  call void @llvm.lifetime.end.p0(i64 8, ptr %8) #11
  call void @llvm.lifetime.end.p0(i64 4, ptr %7) #11
  ret i32 %139

140:                                              ; preds = %120
  unreachable
}