; Function Attrs: nounwind sspstrong uwtable
define internal fastcc void @noname_disable_map(ptr noundef captures(none) %0, ptr noundef nonnull %1, ptr noundef nonnull %2) unnamed_addr #4 {
  br label %tailrecurse.outer

tailrecurse.outer:                                ; preds = %tailrecurse.outer.backedge, %3
  %.tr.ph = phi ptr [ %0, %3 ], [ %.tr.ph.be, %tailrecurse.outer.backedge ]
  br label %tailrecurse

tailrecurse:                                      ; preds = %tailrecurse.outer, %37
  %4 = load ptr, ptr %.tr.ph, align 8, !tbaa !59
  %5 = load i32, ptr %4, align 8, !tbaa !34
  switch i32 %5, label %.critedge [
    i32 8, label %.preheader
    i32 9, label %.preheader
    i32 5, label %10
    i32 6, label %18
    i32 7, label %41
  ]

.preheader:                                       ; preds = %tailrecurse, %tailrecurse
  br label %6

6:                                                ; preds = %.preheader, %6
  %.041 = phi ptr [ %9, %6 ], [ %4, %.preheader ]
  %7 = getelementptr inbounds nuw i8, ptr %.041, i64 8
  tail call fastcc void @noname_disable_map(ptr noundef nonnull %7, ptr noundef %1, ptr noundef %2)
  %8 = getelementptr inbounds nuw i8, ptr %.041, i64 16
  %9 = load ptr, ptr %8, align 8, !tbaa !34
  %.not49 = icmp eq ptr %9, null
  br i1 %.not49, label %.critedge, label %6, !llvm.loop !225

10:                                               ; preds = %tailrecurse
  %11 = getelementptr inbounds nuw i8, ptr %4, i64 8
  %12 = load ptr, ptr %11, align 8, !tbaa !59
  tail call fastcc void @noname_disable_map(ptr noundef nonnull %11, ptr noundef %1, ptr noundef %2)
  %13 = load ptr, ptr %11, align 8, !tbaa !59
  %.not48 = icmp eq ptr %13, %12
  br i1 %.not48, label %.critedge, label %14

14:                                               ; preds = %10
  %15 = load i32, ptr %13, align 8, !tbaa !34
  %16 = icmp eq i32 %15, 5
  br i1 %16, label %17, label %.critedge

17:                                               ; preds = %14
  tail call void @onig_reduce_nested_quantifier(ptr noundef nonnull %4, ptr noundef nonnull %13) #20
  br label %.critedge

18:                                               ; preds = %tailrecurse
  %19 = getelementptr inbounds nuw i8, ptr %4, i64 8
  %20 = load i32, ptr %19, align 8, !tbaa !152
  %21 = icmp eq i32 %20, 1
  br i1 %21, label %22, label %.loopexit

22:                                               ; preds = %18
  %23 = getelementptr inbounds nuw i8, ptr %4, i64 4
  %24 = load i32, ptr %23, align 4, !tbaa !142
  %25 = and i32 %24, 1024
  %.not46 = icmp eq i32 %25, 0
  br i1 %.not46, label %34, label %26

26:                                               ; preds = %22
  %27 = load i32, ptr %2, align 4, !tbaa !7
  %28 = add i32 %27, 1
  store i32 %28, ptr %2, align 4, !tbaa !7
  %29 = getelementptr inbounds nuw i8, ptr %4, i64 12
  %30 = load i32, ptr %29, align 4, !tbaa !183
  %31 = sext i32 %30 to i64
  %32 = getelementptr %struct.GroupNumRemap, ptr %1, i64 %31
  store i32 %28, ptr %32, align 4, !tbaa !123
  %33 = load i32, ptr %2, align 4, !tbaa !7
  store i32 %33, ptr %29, align 4, !tbaa !183
  br label %.loopexit

34:                                               ; preds = %22
  %35 = getelementptr inbounds nuw i8, ptr %4, i64 12
  %36 = load i32, ptr %35, align 4, !tbaa !183
  %.not47 = icmp eq i32 %36, 0
  br i1 %.not47, label %.loopexit, label %37

37:                                               ; preds = %34
  %38 = getelementptr inbounds nuw i8, ptr %4, i64 24
  %39 = load ptr, ptr %38, align 8, !tbaa !144
  store ptr %39, ptr %.tr.ph, align 8, !tbaa !59
  store ptr null, ptr %38, align 8, !tbaa !144
  tail call void @onig_node_free(ptr noundef nonnull %4) #20
  br label %tailrecurse

.loopexit:                                        ; preds = %34, %18, %26
  %40 = getelementptr inbounds nuw i8, ptr %4, i64 24
  br label %tailrecurse.outer.backedge

41:                                               ; preds = %tailrecurse
  %42 = getelementptr inbounds nuw i8, ptr %4, i64 8
  %43 = load ptr, ptr %42, align 8, !tbaa !34
  %.not = icmp eq ptr %43, null
  br i1 %.not, label %.critedge, label %tailrecurse.outer.backedge

tailrecurse.outer.backedge:                       ; preds = %41, %.loopexit
  %.tr.ph.be = phi ptr [ %40, %.loopexit ], [ %42, %41 ]
  br label %tailrecurse.outer

.critedge:                                        ; preds = %41, %tailrecurse, %6, %10, %14, %17
  ret void
}